target datalayout = "e-m:e-p270:32:32-p271:32:32-p272:64:64-i64:64-i128:128-f80:128-n8:16:32:64-S128"
target triple = "x86_64-pc-linux-gnu"

@.str.232 = private unnamed_addr constant [6 x i8] c"chdlc\00", align 1
@.str.280 = private unnamed_addr constant [4 x i8] c"erf\00", align 1
@proto_erf = internal global i32 0, align 4
@erf_handle = internal global ptr null, align 8
@.str.292 = private unnamed_addr constant [11 x i8] c"wtap_encap\00", align 1
@.str.293 = private unnamed_addr constant [13 x i8] c"wtap_fts_rec\00", align 1
@chdlc_handle = internal global ptr null, align 8
@.str.294 = private unnamed_addr constant [9 x i8] c"ppp_hdlc\00", align 1
@ppp_handle = internal global ptr null, align 8
@.str.295 = private unnamed_addr constant [3 x i8] c"fr\00", align 1
@frelay_handle = internal global ptr null, align 8
@.str.296 = private unnamed_addr constant [14 x i8] c"mtp2_with_crc\00", align 1
@mtp2_handle = internal global ptr null, align 8
@.str.297 = private unnamed_addr constant [16 x i8] c"atm_untruncated\00", align 1
@atm_untruncated_handle = internal global ptr null, align 8
@.str.298 = private unnamed_addr constant [4 x i8] c"sdh\00", align 1
@sdh_handle = internal global ptr null, align 8

; Function Attrs: null_pointer_is_valid sspstrong uwtable
define hidden void @proto_reg_handoff_erf() #2 {
  %1 = alloca i32, align 4
  call void @llvm.lifetime.start.p0(i64 4, ptr %1) #14
  %2 = load ptr, ptr @erf_handle, align 8
  call void @dissector_add_uint(ptr noundef @.str.292, i32 noundef 98, ptr noundef %2)
  %3 = call i32 @wtap_name_to_file_type_subtype(ptr noundef @.str.280)
  store i32 %3, ptr %1, align 4
  %4 = load i32, ptr %1, align 4
  %5 = icmp ne i32 %4, -1
  br i1 %5, label %6, label %9

6:                                                ; preds = %0
  %7 = load i32, ptr %1, align 4
  %8 = load ptr, ptr @erf_handle, align 8
  call void @dissector_add_uint(ptr noundef @.str.293, i32 noundef %7, ptr noundef %8)
  br label %9

9:                                                ; preds = %6, %0
  %10 = load i32, ptr @proto_erf, align 4
  %11 = call ptr @find_dissector_add_dependency(ptr noundef @.str.232, i32 noundef %10)
  store ptr %11, ptr @chdlc_handle, align 8
  %12 = load i32, ptr @proto_erf, align 4
  %13 = call ptr @find_dissector_add_dependency(ptr noundef @.str.294, i32 noundef %12)
  store ptr %13, ptr @ppp_handle, align 8
  %14 = load i32, ptr @proto_erf, align 4
  %15 = call ptr @find_dissector_add_dependency(ptr noundef @.str.295, i32 noundef %14)
  store ptr %15, ptr @frelay_handle, align 8
  %16 = load i32, ptr @proto_erf, align 4
  %17 = call ptr @find_dissector_add_dependency(ptr noundef @.str.296, i32 noundef %16)
  store ptr %17, ptr @mtp2_handle, align 8
  %18 = load i32, ptr @proto_erf, align 4
  %19 = call ptr @find_dissector_add_dependency(ptr noundef @.str.297, i32 noundef %18)
  store ptr %19, ptr @atm_untruncated_handle, align 8
  %20 = load i32, ptr @proto_erf, align 4
  %21 = call ptr @find_dissector_add_dependency(ptr noundef @.str.298, i32 noundef %20)
  store ptr %21, ptr @sdh_handle, align 8
  call void @llvm.lifetime.end.p0(i64 4, ptr %1) #14
  ret void
}