; Function Attrs: null_pointer_is_valid sspstrong uwtable
define hidden void @proto_reg_handoff_erf() local_unnamed_addr #2 {
  %1 = load ptr, ptr @erf_handle, align 8
  tail call void @dissector_add_uint(ptr noundef nonnull @.str.292, i32 noundef 98, ptr noundef %1)
  %2 = tail call i32 @wtap_name_to_file_type_subtype(ptr noundef nonnull @.str.280)
  %.not = icmp eq i32 %2, -1
  br i1 %.not, label %5, label %3

3:                                                ; preds = %0
  %4 = load ptr, ptr @erf_handle, align 8
  tail call void @dissector_add_uint(ptr noundef nonnull @.str.293, i32 noundef %2, ptr noundef %4)
  br label %5

5:                                                ; preds = %3, %0
  %6 = load i32, ptr @proto_erf, align 4
  %7 = tail call ptr @find_dissector_add_dependency(ptr noundef nonnull @.str.232, i32 noundef %6)
  store ptr %7, ptr @chdlc_handle, align 8
  %8 = load i32, ptr @proto_erf, align 4
  %9 = tail call ptr @find_dissector_add_dependency(ptr noundef nonnull @.str.294, i32 noundef %8)
  store ptr %9, ptr @ppp_handle, align 8
  %10 = load i32, ptr @proto_erf, align 4
  %11 = tail call ptr @find_dissector_add_dependency(ptr noundef nonnull @.str.295, i32 noundef %10)
  store ptr %11, ptr @frelay_handle, align 8
  %12 = load i32, ptr @proto_erf, align 4
  %13 = tail call ptr @find_dissector_add_dependency(ptr noundef nonnull @.str.296, i32 noundef %12)
  store ptr %13, ptr @mtp2_handle, align 8
  %14 = load i32, ptr @proto_erf, align 4
  %15 = tail call ptr @find_dissector_add_dependency(ptr noundef nonnull @.str.297, i32 noundef %14)
  store ptr %15, ptr @atm_untruncated_handle, align 8
  %16 = load i32, ptr @proto_erf, align 4
  %17 = tail call ptr @find_dissector_add_dependency(ptr noundef nonnull @.str.298, i32 noundef %16)
  store ptr %17, ptr @sdh_handle, align 8
  ret void
}